target datalayout = "e-m:e-p270:32:32-p271:32:32-p272:64:64-i64:64-i128:128-f80:128-n8:16:32:64-S128"
target triple = "x86_64-pc-linux-gnu"

%"class.std::shared_ptr" = type { %"class.std::__shared_ptr" }
%"class.std::__shared_ptr" = type { ptr, %"class.std::__shared_count" }
%"class.std::__shared_count" = type { ptr }
%class.anon.199 = type { %"class.std::shared_ptr" }
%"class.std::uniform_int_distribution" = type { %"struct.std::uniform_int_distribution<unsigned long>::param_type" }
%"struct.std::uniform_int_distribution<unsigned long>::param_type" = type { i64, i64 }

; Function Attrs: mustprogress nounwind uwtable
define linkonce_odr noundef ptr @_ZNKSt12__shared_ptrISt20discard_block_engineISt26subtract_with_carry_engineImLm48ELm5ELm12EELm389ELm11EELN9__gnu_cxx12_Lock_policyE2EE3getEv(ptr noundef nonnull align 8 dereferenceable(16) %0) #1 comdat align 2 {
  %2 = alloca ptr, align 8
  store ptr %0, ptr %2, align 8, !tbaa !780
  %3 = load ptr, ptr %2, align 8
  %4 = getelementptr inbounds nuw %"class.std::__shared_ptr", ptr %3, i32 0, i32 0
  %5 = load ptr, ptr %4, align 8, !tbaa !783
  ret ptr %5
}

; Function Attrs: mustprogress nounwind uwtable
define linkonce_odr noundef ptr @_ZNKSt19__shared_ptr_accessISt20discard_block_engineISt26subtract_with_carry_engineImLm48ELm5ELm12EELm389ELm11EELN9__gnu_cxx12_Lock_policyE2ELb0ELb0EE6_M_getEv(ptr noundef nonnull align 1 dereferenceable(1) %0) #1 comdat align 2 {
  %2 = alloca ptr, align 8
  store ptr %0, ptr %2, align 8, !tbaa !836
  %3 = load ptr, ptr %2, align 8
  %4 = call noundef ptr @_ZNKSt12__shared_ptrISt20discard_block_engineISt26subtract_with_carry_engineImLm48ELm5ELm12EELm389ELm11EELN9__gnu_cxx12_Lock_policyE2EE3getEv(ptr noundef nonnull align 8 dereferenceable(16) %3) #2
  ret ptr %4
}

; Function Attrs: mustprogress nounwind uwtable
define linkonce_odr void @_ZNSt24uniform_int_distributionImE10param_typeC2Emm(ptr noundef nonnull align 8 dereferenceable(16) %0, i64 noundef %1, i64 noundef %2) unnamed_addr #1 comdat align 2 {
  %4 = alloca ptr, align 8
  %5 = alloca i64, align 8
  %6 = alloca i64, align 8
  store ptr %0, ptr %4, align 8, !tbaa !838
  store i64 %1, ptr %5, align 8, !tbaa !83
  store i64 %2, ptr %6, align 8, !tbaa !83
  %7 = load ptr, ptr %4, align 8
  %8 = getelementptr inbounds nuw %"struct.std::uniform_int_distribution<unsigned long>::param_type", ptr %7, i32 0, i32 0
  %9 = load i64, ptr %5, align 8, !tbaa !83
  store i64 %9, ptr %8, align 8, !tbaa !840
  %10 = getelementptr inbounds nuw %"struct.std::uniform_int_distribution<unsigned long>::param_type", ptr %7, i32 0, i32 1
  %11 = load i64, ptr %6, align 8, !tbaa !83
  store i64 %11, ptr %10, align 8, !tbaa !842
  br label %12

12:                                               ; preds = %3
  br label %13

13:                                               ; preds = %12
  ret void
}

; Function Attrs: mustprogress uwtable
define linkonce_odr noundef i64 @_ZNSt24uniform_int_distributionImEclISt20discard_block_engineISt26subtract_with_carry_engineImLm48ELm5ELm12EELm389ELm11EEEEmRT_(ptr noundef nonnull align 8 dereferenceable(16) %0, ptr noundef nonnull align 8 dereferenceable(120) %1) #6 comdat align 2 {
  %3 = alloca ptr, align 8
  %4 = alloca ptr, align 8
  store ptr %0, ptr %3, align 8, !tbaa !834
  store ptr %1, ptr %4, align 8, !tbaa !797
  %5 = load ptr, ptr %3, align 8
  %6 = load ptr, ptr %4, align 8, !tbaa !797
  %7 = getelementptr inbounds nuw %"class.std::uniform_int_distribution", ptr %5, i32 0, i32 0
  %8 = call noundef i64 @_ZNSt24uniform_int_distributionImEclISt20discard_block_engineISt26subtract_with_carry_engineImLm48ELm5ELm12EELm389ELm11EEEEmRT_RKNS0_10param_typeE(ptr noundef nonnull align 8 dereferenceable(16) %5, ptr noundef nonnull align 8 dereferenceable(120) %6, ptr noundef nonnull align 8 dereferenceable(16) %7)
  ret i64 %8
}

; Function Attrs: mustprogress nounwind uwtable
define linkonce_odr noundef nonnull align 8 dereferenceable(120) ptr @_ZNKSt19__shared_ptr_accessISt20discard_block_engineISt26subtract_with_carry_engineImLm48ELm5ELm12EELm389ELm11EELN9__gnu_cxx12_Lock_policyE2ELb0ELb0EEdeEv(ptr noundef nonnull align 1 dereferenceable(1) %0) #1 comdat align 2 {
  %2 = alloca ptr, align 8
  store ptr %0, ptr %2, align 8, !tbaa !836
  %3 = load ptr, ptr %2, align 8
  br label %4

4:                                                ; preds = %1
  br label %5

5:                                                ; preds = %4
  br label %6

6:                                                ; preds = %5
  %7 = call noundef ptr @_ZNKSt19__shared_ptr_accessISt20discard_block_engineISt26subtract_with_carry_engineImLm48ELm5ELm12EELm389ELm11EELN9__gnu_cxx12_Lock_policyE2ELb0ELb0EE6_M_getEv(ptr noundef nonnull align 1 dereferenceable(1) %3) #2
  ret ptr %7
}

; Function Attrs: mustprogress uwtable
define linkonce_odr void @_ZNSt24uniform_int_distributionImEC2Emm(ptr noundef nonnull align 8 dereferenceable(16) %0, i64 noundef %1, i64 noundef %2) unnamed_addr #6 comdat align 2 {
  %4 = alloca ptr, align 8
  %5 = alloca i64, align 8
  %6 = alloca i64, align 8
  store ptr %0, ptr %4, align 8, !tbaa !834
  store i64 %1, ptr %5, align 8, !tbaa !83
  store i64 %2, ptr %6, align 8, !tbaa !83
  %7 = load ptr, ptr %4, align 8
  %8 = getelementptr inbounds nuw %"class.std::uniform_int_distribution", ptr %7, i32 0, i32 0
  %9 = load i64, ptr %5, align 8, !tbaa !83
  %10 = load i64, ptr %6, align 8, !tbaa !83
  call void @_ZNSt24uniform_int_distributionImE10param_typeC2Emm(ptr noundef nonnull align 8 dereferenceable(16) %8, i64 noundef %9, i64 noundef %10)
  ret void
}

; Function Attrs: inlinehint mustprogress uwtable
define internal noundef i64 @"_ZZN5folly4test21DeterministicSchedule7uniformEmENK3$_0clEm"(ptr noundef nonnull align 8 dereferenceable(16) %0, i64 noundef %1) #10 align 2 {
  %3 = alloca ptr, align 8
  %4 = alloca i64, align 8
  %5 = alloca %"class.std::uniform_int_distribution", align 8
  store ptr %0, ptr %3, align 8, !tbaa !117
  store i64 %1, ptr %4, align 8, !tbaa !83
  %6 = load ptr, ptr %3, align 8
  call void @llvm.lifetime.start.p0(i64 16, ptr %5) #2
  %7 = load i64, ptr %4, align 8, !tbaa !83
  %8 = sub i64 %7, 1
  call void @_ZNSt24uniform_int_distributionImEC2Emm(ptr noundef nonnull align 8 dereferenceable(16) %5, i64 noundef 0, i64 noundef %8)
  %9 = getelementptr inbounds nuw %class.anon.199, ptr %6, i32 0, i32 0
  %10 = call noundef nonnull align 8 dereferenceable(120) ptr @_ZNKSt19__shared_ptr_accessISt20discard_block_engineISt26subtract_with_carry_engineImLm48ELm5ELm12EELm389ELm11EELN9__gnu_cxx12_Lock_policyE2ELb0ELb0EEdeEv(ptr noundef nonnull align 1 dereferenceable(1) %9) #2
  %11 = call noundef i64 @_ZNSt24uniform_int_distributionImEclISt20discard_block_engineISt26subtract_with_carry_engineImLm48ELm5ELm12EELm389ELm11EEEEmRT_(ptr noundef nonnull align 8 dereferenceable(16) %5, ptr noundef nonnull align 8 dereferenceable(120) %10)
  call void @llvm.lifetime.end.p0(i64 16, ptr %5) #2
  ret i64 %11
}

; Function Attrs: mustprogress nounwind uwtable
define linkonce_odr noundef ptr @_ZNKSt9_Any_data9_M_accessEv(ptr noundef nonnull align 8 dereferenceable(16) %0) #1 comdat align 2 {
  %2 = alloca ptr, align 8
  store ptr %0, ptr %2, align 8, !tbaa !291
  %3 = load ptr, ptr %2, align 8
  %4 = getelementptr inbounds [16 x i8], ptr %3, i64 0, i64 0
  ret ptr %4
}

; Function Attrs: mustprogress uwtable
define internal noundef i64 @"_ZSt13__invoke_implImRZN5folly4test21DeterministicSchedule7uniformEmE3$_0JmEET_St14__invoke_otherOT0_DpOT1_"(ptr noundef nonnull align 8 dereferenceable(16) %0, ptr noundef nonnull align 8 dereferenceable(8) %1) #6 {
  %3 = alloca ptr, align 8
  %4 = alloca ptr, align 8
  store ptr %0, ptr %3, align 8, !tbaa !117
  store ptr %1, ptr %4, align 8, !tbaa !110
  %5 = load ptr, ptr %3, align 8, !tbaa !117
  %6 = load ptr, ptr %4, align 8, !tbaa !110
  %7 = load i64, ptr %6, align 8, !tbaa !83
  %8 = call noundef i64 @"_ZZN5folly4test21DeterministicSchedule7uniformEmENK3$_0clEm"(ptr noundef nonnull align 8 dereferenceable(16) %5, i64 noundef %7)
  ret i64 %8
}

; Function Attrs: mustprogress nounwind uwtable
define internal noundef nonnull align 8 dereferenceable(8) ptr @"_ZNKSt9_Any_data9_M_accessIPZN5folly4test21DeterministicSchedule7uniformEmE3$_0EERKT_v"(ptr noundef nonnull align 8 dereferenceable(16) %0) #1 align 2 {
  %2 = alloca ptr, align 8
  store ptr %0, ptr %2, align 8, !tbaa !291
  %3 = load ptr, ptr %2, align 8
  %4 = call noundef ptr @_ZNKSt9_Any_data9_M_accessEv(ptr noundef nonnull align 8 dereferenceable(16) %3) #2
  ret ptr %4
}

; Function Attrs: mustprogress uwtable
define internal noundef i64 @"_ZSt10__invoke_rImRZN5folly4test21DeterministicSchedule7uniformEmE3$_0JmEENSt9enable_ifIX16is_invocable_r_vIT_T0_DpT1_EES6_E4typeEOS7_DpOS8_"(ptr noundef nonnull align 8 dereferenceable(16) %0, ptr noundef nonnull align 8 dereferenceable(8) %1) #6 {
  %3 = alloca ptr, align 8
  %4 = alloca ptr, align 8
  store ptr %0, ptr %3, align 8, !tbaa !117
  store ptr %1, ptr %4, align 8, !tbaa !110
  %5 = load ptr, ptr %3, align 8, !tbaa !117
  %6 = load ptr, ptr %4, align 8, !tbaa !110
  %7 = call noundef i64 @"_ZSt13__invoke_implImRZN5folly4test21DeterministicSchedule7uniformEmE3$_0JmEET_St14__invoke_otherOT0_DpOT1_"(ptr noundef nonnull align 8 dereferenceable(16) %5, ptr noundef nonnull align 8 dereferenceable(8) %6)
  ret i64 %7
}

; Function Attrs: mustprogress nounwind uwtable
define internal noundef ptr @"_ZNSt14_Function_base13_Base_managerIZN5folly4test21DeterministicSchedule7uniformEmE3$_0E14_M_get_pointerERKSt9_Any_data"(ptr noundef nonnull align 8 dereferenceable(16) %0) #1 align 2 {
  %2 = alloca ptr, align 8
  store ptr %0, ptr %2, align 8, !tbaa !291
  %3 = load ptr, ptr %2, align 8, !tbaa !291
  %4 = call noundef nonnull align 8 dereferenceable(8) ptr @"_ZNKSt9_Any_data9_M_accessIPZN5folly4test21DeterministicSchedule7uniformEmE3$_0EERKT_v"(ptr noundef nonnull align 8 dereferenceable(16) %3) #2
  %5 = load ptr, ptr %4, align 8, !tbaa !117
  ret ptr %5
}

; Function Attrs: mustprogress uwtable
define internal noundef i64 @"_ZNSt17_Function_handlerIFmmEZN5folly4test21DeterministicSchedule7uniformEmE3$_0E9_M_invokeERKSt9_Any_dataOm"(ptr noundef nonnull align 8 dereferenceable(16) %0, ptr noundef nonnull align 8 dereferenceable(8) %1) #6 align 2 {
  %3 = alloca ptr, align 8
  %4 = alloca ptr, align 8
  store ptr %0, ptr %3, align 8, !tbaa !291
  store ptr %1, ptr %4, align 8, !tbaa !110
  %5 = load ptr, ptr %3, align 8, !tbaa !291
  %6 = call noundef ptr @"_ZNSt14_Function_base13_Base_managerIZN5folly4test21DeterministicSchedule7uniformEmE3$_0E14_M_get_pointerERKSt9_Any_data"(ptr noundef nonnull align 8 dereferenceable(16) %5) #2
  %7 = load ptr, ptr %4, align 8, !tbaa !110
  %8 = call noundef i64 @"_ZSt10__invoke_rImRZN5folly4test21DeterministicSchedule7uniformEmE3$_0JmEENSt9enable_ifIX16is_invocable_r_vIT_T0_DpT1_EES6_E4typeEOS7_DpOS8_"(ptr noundef nonnull align 8 dereferenceable(16) %6, ptr noundef nonnull align 8 dereferenceable(8) %7)
  ret i64 %8
}