; Function Attrs: mustprogress uwtable
define internal noundef i64 @"_ZNSt17_Function_handlerIFmmEZN5folly4test21DeterministicSchedule7uniformEmE3$_0E9_M_invokeERKSt9_Any_dataOm"(ptr noundef nonnull readonly align 8 captures(none) dereferenceable(16) %0, ptr noundef nonnull readonly align 8 captures(none) dereferenceable(8) %1) #7 align 2 {
  %3 = alloca %"class.std::uniform_int_distribution", align 8
  %.val = load ptr, ptr %0, align 8, !tbaa !137
  %.val2 = load ptr, ptr %.val, align 8, !tbaa !324
  %.val3 = load i64, ptr %1, align 8, !tbaa !31
  call void @llvm.lifetime.start.p0(i64 16, ptr nonnull %3) #18
  %4 = add i64 %.val3, -1
  store i64 0, ptr %3, align 8, !tbaa !328
  %5 = getelementptr inbounds nuw i8, ptr %3, i64 8
  store i64 %4, ptr %5, align 8, !tbaa !330
  %6 = call noundef i64 @_ZNSt24uniform_int_distributionImEclISt20discard_block_engineISt26subtract_with_carry_engineImLm48ELm5ELm12EELm389ELm11EEEEmRT_RKNS0_10param_typeE(ptr noundef nonnull align 8 dereferenceable(16) %3, ptr noundef nonnull align 8 dereferenceable(120) %.val2, ptr noundef nonnull align 8 dereferenceable(16) %3)
  call void @llvm.lifetime.end.p0(i64 16, ptr nonnull %3) #18
  ret i64 %6
}